target datalayout = "e-m:e-p270:32:32-p271:32:32-p272:64:64-i64:64-i128:128-f80:128-n8:16:32:64-S128"
target triple = "x86_64-pc-linux-gnu"

%"class.cv::Mat" = type { i32, i32, i32, i32, ptr, ptr, ptr, ptr, ptr, ptr, %"struct.cv::MatSize", %"struct.cv::MatStep" }
%"struct.cv::MatSize" = type { ptr }
%"struct.cv::MatStep" = type { ptr, [2 x i64] }
%"class.cv::gapi::fluid::BufferStorage" = type { ptr, %"class.cv::Mat" }
%"class.cv::gapi::fluid::BufferStorageWithBorder" = type { %"class.cv::gapi::fluid::BufferStorage", %"class.std::unique_ptr" }
%"class.std::unique_ptr" = type { %"struct.std::__uniq_ptr_data" }
%"struct.std::__uniq_ptr_data" = type { %"class.std::__uniq_ptr_impl" }
%"class.std::__uniq_ptr_impl" = type { %"class.std::tuple" }
%"class.std::tuple" = type { %"struct.std::_Tuple_impl" }
%"struct.std::_Tuple_impl" = type { %"struct.std::_Head_base.1" }
%"struct.std::_Head_base.1" = type { ptr }

; Function Attrs: mustprogress nounwind uwtable
define linkonce_odr hidden noundef nonnull align 8 dereferenceable(8) ptr @_ZNSt10_Head_baseILm0EPN2cv4gapi5fluid13BorderHandlerELb0EE7_M_headERKS5_(ptr noundef nonnull align 8 dereferenceable(8) %0) #8 comdat align 2 {
  %2 = alloca ptr, align 8
  store ptr %0, ptr %2, align 8, !tbaa !295
  %3 = load ptr, ptr %2, align 8, !tbaa !295
  %4 = getelementptr inbounds nuw %"struct.std::_Head_base.1", ptr %3, i32 0, i32 0
  ret ptr %4
}

; Function Attrs: mustprogress nounwind uwtable
define linkonce_odr hidden noundef nonnull align 8 dereferenceable(8) ptr @_ZNSt11_Tuple_implILm0EJPN2cv4gapi5fluid13BorderHandlerESt14default_deleteIS3_EEE7_M_headERKS7_(ptr noundef nonnull align 8 dereferenceable(8) %0) #8 comdat align 2 {
  %2 = alloca ptr, align 8
  store ptr %0, ptr %2, align 8, !tbaa !291
  %3 = load ptr, ptr %2, align 8, !tbaa !291
  %4 = call noundef nonnull align 8 dereferenceable(8) ptr @_ZNSt10_Head_baseILm0EPN2cv4gapi5fluid13BorderHandlerELb0EE7_M_headERKS5_(ptr noundef nonnull align 8 dereferenceable(8) %3) #3
  ret ptr %4
}

; Function Attrs: mustprogress nounwind uwtable
define linkonce_odr hidden noundef nonnull align 8 dereferenceable(8) ptr @_ZSt12__get_helperILm0EPN2cv4gapi5fluid13BorderHandlerEJSt14default_deleteIS3_EEERKT0_RKSt11_Tuple_implIXT_EJS7_DpT1_EE(ptr noundef nonnull align 8 dereferenceable(8) %0) #8 comdat {
  %2 = alloca ptr, align 8
  store ptr %0, ptr %2, align 8, !tbaa !291
  %3 = load ptr, ptr %2, align 8, !tbaa !291
  %4 = call noundef nonnull align 8 dereferenceable(8) ptr @_ZNSt11_Tuple_implILm0EJPN2cv4gapi5fluid13BorderHandlerESt14default_deleteIS3_EEE7_M_headERKS7_(ptr noundef nonnull align 8 dereferenceable(8) %3) #3
  ret ptr %4
}

; Function Attrs: mustprogress nounwind uwtable
define linkonce_odr hidden noundef nonnull align 8 dereferenceable(8) ptr @_ZSt3getILm0EJPN2cv4gapi5fluid13BorderHandlerESt14default_deleteIS3_EEERKNSt13tuple_elementIXT_ESt5tupleIJDpT0_EEE4typeERKSB_(ptr noundef nonnull align 8 dereferenceable(8) %0) #8 comdat {
  %2 = alloca ptr, align 8
  store ptr %0, ptr %2, align 8, !tbaa !289
  %3 = load ptr, ptr %2, align 8, !tbaa !289
  %4 = call noundef nonnull align 8 dereferenceable(8) ptr @_ZSt12__get_helperILm0EPN2cv4gapi5fluid13BorderHandlerEJSt14default_deleteIS3_EEERKT0_RKSt11_Tuple_implIXT_EJS7_DpT1_EE(ptr noundef nonnull align 8 dereferenceable(8) %3) #3
  ret ptr %4
}

; Function Attrs: mustprogress nounwind uwtable
define linkonce_odr hidden noundef ptr @_ZNKSt15__uniq_ptr_implIN2cv4gapi5fluid13BorderHandlerESt14default_deleteIS3_EE6_M_ptrEv(ptr noundef nonnull align 8 dereferenceable(8) %0) #8 comdat align 2 {
  %2 = alloca ptr, align 8
  store ptr %0, ptr %2, align 8, !tbaa !287
  %3 = load ptr, ptr %2, align 8
  %4 = getelementptr inbounds nuw %"class.std::__uniq_ptr_impl", ptr %3, i32 0, i32 0
  %5 = call noundef nonnull align 8 dereferenceable(8) ptr @_ZSt3getILm0EJPN2cv4gapi5fluid13BorderHandlerESt14default_deleteIS3_EEERKNSt13tuple_elementIXT_ESt5tupleIJDpT0_EEE4typeERKSB_(ptr noundef nonnull align 8 dereferenceable(8) %4) #3
  %6 = load ptr, ptr %5, align 8, !tbaa !18
  ret ptr %6
}

; Function Attrs: mustprogress nounwind uwtable
define linkonce_odr hidden noundef ptr @_ZNKSt10unique_ptrIN2cv4gapi5fluid13BorderHandlerESt14default_deleteIS3_EE3getEv(ptr noundef nonnull align 8 dereferenceable(8) %0) #8 comdat align 2 {
  %2 = alloca ptr, align 8
  store ptr %0, ptr %2, align 8, !tbaa !87
  %3 = load ptr, ptr %2, align 8
  %4 = getelementptr inbounds nuw %"class.std::unique_ptr", ptr %3, i32 0, i32 0
  %5 = call noundef ptr @_ZNKSt15__uniq_ptr_implIN2cv4gapi5fluid13BorderHandlerESt14default_deleteIS3_EE6_M_ptrEv(ptr noundef nonnull align 8 dereferenceable(8) %4) #3
  ret ptr %5
}

; Function Attrs: mustprogress nounwind uwtable
define linkonce_odr hidden noundef ptr @_ZNKSt10unique_ptrIN2cv4gapi5fluid13BorderHandlerESt14default_deleteIS3_EEptEv(ptr noundef nonnull align 8 dereferenceable(8) %0) #8 comdat align 2 {
  %2 = alloca ptr, align 8
  store ptr %0, ptr %2, align 8, !tbaa !87
  %3 = load ptr, ptr %2, align 8
  %4 = call noundef ptr @_ZNKSt10unique_ptrIN2cv4gapi5fluid13BorderHandlerESt14default_deleteIS3_EE3getEv(ptr noundef nonnull align 8 dereferenceable(8) %3) #3
  ret ptr %4
}

; Function Attrs: inlinehint mustprogress nounwind uwtable
define linkonce_odr hidden noundef i64 @_ZNK2cv3Mat8elemSizeEv(ptr noundef nonnull align 8 dereferenceable(96) %0) #5 comdat align 2 {
  %2 = alloca ptr, align 8
  %3 = alloca i64, align 8
  store ptr %0, ptr %2, align 8, !tbaa !35
  %4 = load ptr, ptr %2, align 8
  call void @llvm.lifetime.start.p0(i64 8, ptr %3) #3
  %5 = getelementptr inbounds nuw %"class.cv::Mat", ptr %4, i32 0, i32 1
  %6 = load i32, ptr %5, align 4, !tbaa !58
  %7 = icmp sgt i32 %6, 0
  br i1 %7, label %8, label %18

8:                                                ; preds = %1
  %9 = getelementptr inbounds nuw %"class.cv::Mat", ptr %4, i32 0, i32 11
  %10 = getelementptr inbounds nuw %"struct.cv::MatStep", ptr %9, i32 0, i32 0
  %11 = load ptr, ptr %10, align 8, !tbaa !45
  %12 = getelementptr inbounds nuw %"class.cv::Mat", ptr %4, i32 0, i32 1
  %13 = load i32, ptr %12, align 4, !tbaa !58
  %14 = sub nsw i32 %13, 1
  %15 = sext i32 %14 to i64
  %16 = getelementptr inbounds i64, ptr %11, i64 %15
  %17 = load i64, ptr %16, align 8, !tbaa !46
  br label %19

18:                                               ; preds = %1
  br label %19

19:                                               ; preds = %18, %8
  %20 = phi i64 [ %17, %8 ], [ 0, %18 ]
  store i64 %20, ptr %3, align 8, !tbaa !46
  %21 = load i64, ptr %3, align 8, !tbaa !46
  call void @llvm.lifetime.end.p0(i64 8, ptr %3) #3
  ret i64 %21
}

; Function Attrs: mustprogress uwtable
define hidden noundef i64 @_ZNK2cv4gapi5fluid23BufferStorageWithBorder4sizeEv(ptr noundef nonnull align 8 dereferenceable(112) %0) unnamed_addr #4 align 2 {
  %2 = alloca ptr, align 8
  store ptr %0, ptr %2, align 8, !tbaa !33
  %3 = load ptr, ptr %2, align 8
  %4 = getelementptr inbounds nuw %"class.cv::gapi::fluid::BufferStorage", ptr %3, i32 0, i32 1
  %5 = call noundef i64 @_ZNK2cv3Mat5totalEv(ptr noundef nonnull align 8 dereferenceable(96) %4)
  %6 = getelementptr inbounds nuw %"class.cv::gapi::fluid::BufferStorage", ptr %3, i32 0, i32 1
  %7 = call noundef i64 @_ZNK2cv3Mat8elemSizeEv(ptr noundef nonnull align 8 dereferenceable(96) %6)
  %8 = mul i64 %5, %7
  %9 = getelementptr inbounds nuw %"class.cv::gapi::fluid::BufferStorageWithBorder", ptr %3, i32 0, i32 1
  %10 = call noundef ptr @_ZNKSt10unique_ptrIN2cv4gapi5fluid13BorderHandlerESt14default_deleteIS3_EEptEv(ptr noundef nonnull align 8 dereferenceable(8) %9) #3
  %11 = load ptr, ptr %10, align 8, !tbaa !21
  %12 = getelementptr inbounds ptr, ptr %11, i64 5
  %13 = load ptr, ptr %12, align 8
  %14 = call noundef i64 %13(ptr noundef nonnull align 8 dereferenceable(12) %10)
  %15 = add i64 %8, %14
  ret i64 %15
}